target datalayout = "e-m:e-p270:32:32-p271:32:32-p272:64:64-i64:64-i128:128-f80:128-n8:16:32:64-S128"
target triple = "x86_64-pc-linux-gnu"

%struct.ExtChannelElement = type { %struct.ChannelElement, [2 x [672 x %struct.PredictorState]], %struct.SpectralBandReplication }
%struct.ChannelElement = type { i32, i8, [128 x i8], [11 x i8], [2 x %struct.SingleChannelElement], %struct.ChannelCoupling, [8 x i8], %struct.AACUsacStereo }
%struct.SingleChannelElement = type { %struct.IndividualChannelStream, %struct.AACUsacElemData, %struct.TemporalNoiseShaping, [128 x i32], [128 x i32], %union.anon.3, [12 x i8], %union.anon.4, %union.anon.5, %union.anon.6, %union.anon.7, %union.anon.8, %union.anon.9, %union.anon.10 }
%struct.IndividualChannelStream = type { i8, [2 x i32], [2 x i8], i32, i32, [8 x i8], %struct.LongTermPrediction, ptr, i32, i32, i32, i32, i32, i32, [41 x i8], [8 x i8] }
%struct.LongTermPrediction = type { i8, i16, %union.anon, [40 x i8] }
%union.anon = type { i32 }
%struct.AACUsacElemData = type { i8, i8, i8, [16 x i8], %struct.anon, %struct.anon.0, %struct.anon.1, %struct.AACArithState }
%struct.anon = type { i16, i32 }
%struct.anon.0 = type { i32, i8 }
%struct.anon.1 = type { i8, [8 x [8 x i32]] }
%struct.AACArithState = type { [513 x i8], i32, [4 x i8], i16 }
%struct.TemporalNoiseShaping = type { i32, [8 x i32], [8 x [4 x i32]], [8 x [4 x i32]], [8 x [4 x i32]], %union.anon.2 }
%union.anon.2 = type { [8 x [4 x [20 x i32]]] }
%union.anon.3 = type { [128 x i32] }
%union.anon.4 = type { [1024 x i32] }
%union.anon.5 = type { [1024 x i32] }
%union.anon.6 = type { [1536 x i32] }
%union.anon.7 = type { [2048 x i32] }
%union.anon.8 = type { [3072 x i32] }
%union.anon.9 = type { ptr }
%union.anon.10 = type { ptr }
%struct.ChannelCoupling = type { i32, i32, [8 x i32], [8 x i32], [8 x i32], %union.anon.11 }
%union.anon.11 = type { [16 x [120 x i32]] }
%struct.AACUsacStereo = type { i8, i8, i8, i8, i8, i8, i8, i8, [128 x i8], [8 x i8], %union.anon.12, %union.anon.13, %union.anon.14, %union.anon.15, %union.anon.16, %union.anon.17, %union.anon.18 }
%union.anon.12 = type { [1024 x i32] }
%union.anon.13 = type { [1024 x i32] }
%union.anon.14 = type { [1024 x i32] }
%union.anon.15 = type { [1024 x i32] }
%union.anon.16 = type { [1024 x i32] }
%union.anon.17 = type { [1024 x i32] }
%union.anon.18 = type { [1024 x i32] }
%struct.PredictorState = type { float, float, float, float, float, float, float, float }
%struct.SpectralBandReplication = type { i32, i32, i32, i32, i32, i32, i32, %struct.SpectrumParameters, i32, i32, i32, i32, i32, i32, i32, [5 x i32], [2 x i32], [2 x i32], i32, i32, [4 x i8], [2 x %struct.SBRData], %struct.PSContext, [2 x i32], i32, i32, [49 x i16], [25 x i16], [49 x i16], [6 x i16], [30 x i16], i32, [6 x i8], [6 x i8], [32 x [40 x [2 x float]]], [64 x [40 x [2 x float]]], [2 x [2 x [38 x [64 x float]]]], [64 x [2 x float]], [64 x [2 x float]], [8 x [48 x float]], [8 x [48 x float]], [8 x [48 x i8]], [8 x [48 x float]], [8 x [48 x float]], [8 x [48 x float]], [8 x [48 x float]], [5 x [64 x float]], ptr, ptr, ptr, ptr, %struct.SBRDSPContext, %struct.AACSBRContext }
%struct.SpectrumParameters = type { i8, i8, i8, i8, i8, i8 }
%struct.SBRData = type { i32, i32, i32, [9 x i8], i32, [9 x i8], [2 x i8], [2 x [5 x i8]], [48 x i8], i32, [8 x i8], [2304 x float], [1312 x float], i32, [2 x i32], [5 x float], [2 x [32 x [32 x [2 x float]]]], i32, [12 x i8], [2 x [38 x [64 x [2 x float]]]], [42 x [48 x float]], [42 x [48 x float]], [9 x [48 x i8]], [9 x [48 x i8]], [9 x [48 x float]], [3 x [5 x i8]], [3 x [5 x float]], [9 x i8], i8, [3 x i8], i32, i32, [6 x i8], [6 x i8] }
%struct.PSContext = type { %struct.PSCommonContext, [4 x i8], [5 x [44 x [2 x float]]], [91 x [46 x [2 x float]]], [50 x [3 x [37 x [2 x float]]]], [34 x float], [8 x i8], [34 x float], [8 x i8], [34 x float], [8 x i8], [2 x [6 x [34 x float]]], [2 x [6 x [34 x float]]], [2 x [6 x [34 x float]]], [2 x [6 x [34 x float]]], [91 x [32 x [2 x float]]], [91 x [32 x [2 x float]]], [34 x i8], [34 x i8], %struct.PSDSPContext, [8 x i8] }
%struct.PSCommonContext = type { i32, i32, i32, i32, i32, i32, i32, i32, i32, i32, i32, i32, i32, [6 x i32], [5 x [34 x i8]], [5 x [34 x i8]], [5 x [34 x i8]], [5 x [34 x i8]], i32, i32 }
%struct.PSDSPContext = type { ptr, ptr, ptr, ptr, ptr, ptr, [2 x ptr] }
%struct.SBRDSPContext = type { ptr, ptr, ptr, ptr, ptr, ptr, ptr, ptr, ptr, ptr, [4 x ptr] }
%struct.AACSBRContext = type { ptr, ptr, ptr, ptr }

; Function Attrs: nounwind uwtable
define internal void @aacsbr_func_ptr_init(ptr noundef %0) #3 {
  %2 = alloca ptr, align 8
  store ptr %0, ptr %2, align 8, !tbaa !39
  %3 = load ptr, ptr %2, align 8, !tbaa !39
  %4 = getelementptr inbounds nuw %struct.AACSBRContext, ptr %3, i32 0, i32 0
  store ptr @sbr_lf_gen, ptr %4, align 8, !tbaa !41
  %5 = load ptr, ptr %2, align 8, !tbaa !39
  %6 = getelementptr inbounds nuw %struct.AACSBRContext, ptr %5, i32 0, i32 1
  store ptr @sbr_hf_assemble, ptr %6, align 8, !tbaa !42
  %7 = load ptr, ptr %2, align 8, !tbaa !39
  %8 = getelementptr inbounds nuw %struct.AACSBRContext, ptr %7, i32 0, i32 2
  store ptr @sbr_x_gen, ptr %8, align 8, !tbaa !43
  %9 = load ptr, ptr %2, align 8, !tbaa !39
  %10 = getelementptr inbounds nuw %struct.AACSBRContext, ptr %9, i32 0, i32 3
  store ptr @sbr_hf_inverse_filter, ptr %10, align 8, !tbaa !44
  ret void
}

; Function Attrs: inlinehint nounwind uwtable
define internal void @ff_ps_ctx_init(ptr noundef %0) #4 {
  %2 = alloca ptr, align 8
  store ptr %0, ptr %2, align 8, !tbaa !37
  %3 = load ptr, ptr %2, align 8, !tbaa !37
  %4 = getelementptr inbounds nuw %struct.PSContext, ptr %3, i32 0, i32 19
  call void @ff_psdsp_init(ptr noundef %4)
  ret void
}

; Function Attrs: nounwind uwtable
define internal void @sbr_turnoff(ptr noundef %0) #3 {
  %2 = alloca ptr, align 8
  store ptr %0, ptr %2, align 8, !tbaa !18
  %3 = load ptr, ptr %2, align 8, !tbaa !18
  %4 = getelementptr inbounds nuw %struct.SpectralBandReplication, ptr %3, i32 0, i32 1
  store i32 0, ptr %4, align 4, !tbaa !34
  %5 = load ptr, ptr %2, align 8, !tbaa !18
  %6 = getelementptr inbounds nuw %struct.SpectralBandReplication, ptr %5, i32 0, i32 4
  store i32 0, ptr %6, align 16, !tbaa !35
  %7 = load ptr, ptr %2, align 8, !tbaa !18
  %8 = getelementptr inbounds nuw %struct.SpectralBandReplication, ptr %7, i32 0, i32 2
  store i32 0, ptr %8, align 8, !tbaa !36
  %9 = load ptr, ptr %2, align 8, !tbaa !18
  %10 = getelementptr inbounds nuw %struct.SpectralBandReplication, ptr %9, i32 0, i32 16
  %11 = getelementptr inbounds [2 x i32], ptr %10, i64 0, i64 1
  store i32 32, ptr %11, align 4, !tbaa !12
  %12 = load ptr, ptr %2, align 8, !tbaa !18
  %13 = getelementptr inbounds nuw %struct.SpectralBandReplication, ptr %12, i32 0, i32 17
  %14 = getelementptr inbounds [2 x i32], ptr %13, i64 0, i64 1
  store i32 0, ptr %14, align 4, !tbaa !12
  %15 = load ptr, ptr %2, align 8, !tbaa !18
  %16 = getelementptr inbounds nuw %struct.SpectralBandReplication, ptr %15, i32 0, i32 21
  %17 = getelementptr inbounds [2 x %struct.SBRData], ptr %16, i64 0, i64 1
  %18 = getelementptr inbounds nuw %struct.SBRData, ptr %17, i32 0, i32 14
  %19 = getelementptr inbounds [2 x i32], ptr %18, i64 0, i64 1
  store i32 -1, ptr %19, align 4, !tbaa !12
  %20 = load ptr, ptr %2, align 8, !tbaa !18
  %21 = getelementptr inbounds nuw %struct.SpectralBandReplication, ptr %20, i32 0, i32 21
  %22 = getelementptr inbounds [2 x %struct.SBRData], ptr %21, i64 0, i64 0
  %23 = getelementptr inbounds nuw %struct.SBRData, ptr %22, i32 0, i32 14
  %24 = getelementptr inbounds [2 x i32], ptr %23, i64 0, i64 1
  store i32 -1, ptr %24, align 4, !tbaa !12
  %25 = load ptr, ptr %2, align 8, !tbaa !18
  %26 = getelementptr inbounds nuw %struct.SpectralBandReplication, ptr %25, i32 0, i32 7
  call void @llvm.memset.p0.i64(ptr align 4 %26, i8 -1, i64 6, i1 false)
  ret void
}

; Function Attrs: cold nounwind optsize uwtable
define hidden i32 @ff_aac_sbr_ctx_alloc_init(ptr noundef %0, ptr noundef %1, i32 noundef %2) #0 {
  %4 = alloca i32, align 4
  %5 = alloca ptr, align 8
  %6 = alloca ptr, align 8
  %7 = alloca i32, align 4
  %8 = alloca ptr, align 8
  %9 = alloca ptr, align 8
  %10 = alloca i32, align 4
  %11 = alloca float, align 4
  %12 = alloca i32, align 4
  store ptr %0, ptr %5, align 8, !tbaa !4
  store ptr %1, ptr %6, align 8, !tbaa !9
  store i32 %2, ptr %7, align 4, !tbaa !12
  call void @llvm.lifetime.start.p0(i64 8, ptr %8) #12
  call void @llvm.lifetime.start.p0(i64 8, ptr %9) #12
  %13 = call noalias ptr @av_mallocz(i64 noundef 554256)
  store ptr %13, ptr %9, align 8, !tbaa !14
  call void @llvm.lifetime.start.p0(i64 4, ptr %10) #12
  call void @llvm.lifetime.start.p0(i64 4, ptr %11) #12
  %14 = load ptr, ptr %9, align 8, !tbaa !14
  %15 = icmp ne ptr %14, null
  br i1 %15, label %17, label %16

16:                                               ; preds = %3
  store i32 -12, ptr %4, align 4
  store i32 1, ptr %12, align 4
  br label %86

17:                                               ; preds = %3
  %18 = load ptr, ptr %9, align 8, !tbaa !14
  %19 = getelementptr inbounds nuw %struct.ExtChannelElement, ptr %18, i32 0, i32 0
  %20 = load ptr, ptr %6, align 8, !tbaa !9
  store ptr %19, ptr %20, align 8, !tbaa !16
  %21 = load ptr, ptr %9, align 8, !tbaa !14
  %22 = getelementptr inbounds nuw %struct.ExtChannelElement, ptr %21, i32 0, i32 2
  store ptr %22, ptr %8, align 8, !tbaa !18
  %23 = load ptr, ptr %9, align 8, !tbaa !14
  %24 = getelementptr inbounds nuw %struct.ExtChannelElement, ptr %23, i32 0, i32 1
  %25 = getelementptr inbounds [2 x [672 x %struct.PredictorState]], ptr %24, i64 0, i64 0
  %26 = getelementptr inbounds [672 x %struct.PredictorState], ptr %25, i64 0, i64 0
  %27 = load ptr, ptr %9, align 8, !tbaa !14
  %28 = getelementptr inbounds nuw %struct.ExtChannelElement, ptr %27, i32 0, i32 0
  %29 = getelementptr inbounds nuw %struct.ChannelElement, ptr %28, i32 0, i32 4
  %30 = getelementptr inbounds [2 x %struct.SingleChannelElement], ptr %29, i64 0, i64 0
  %31 = getelementptr inbounds nuw %struct.SingleChannelElement, ptr %30, i32 0, i32 12
  store ptr %26, ptr %31, align 16, !tbaa !20
  %32 = load ptr, ptr %9, align 8, !tbaa !14
  %33 = getelementptr inbounds nuw %struct.ExtChannelElement, ptr %32, i32 0, i32 1
  %34 = getelementptr inbounds [2 x [672 x %struct.PredictorState]], ptr %33, i64 0, i64 1
  %35 = getelementptr inbounds [672 x %struct.PredictorState], ptr %34, i64 0, i64 0
  %36 = load ptr, ptr %9, align 8, !tbaa !14
  %37 = getelementptr inbounds nuw %struct.ExtChannelElement, ptr %36, i32 0, i32 0
  %38 = getelementptr inbounds nuw %struct.ChannelElement, ptr %37, i32 0, i32 4
  %39 = getelementptr inbounds [2 x %struct.SingleChannelElement], ptr %38, i64 0, i64 1
  %40 = getelementptr inbounds nuw %struct.SingleChannelElement, ptr %39, i32 0, i32 12
  store ptr %35, ptr %40, align 16, !tbaa !20
  %41 = load ptr, ptr %8, align 8, !tbaa !18
  %42 = getelementptr inbounds nuw %struct.SpectralBandReplication, ptr %41, i32 0, i32 16
  %43 = getelementptr inbounds [2 x i32], ptr %42, i64 0, i64 1
  %44 = load i32, ptr %43, align 4, !tbaa !12
  %45 = load ptr, ptr %8, align 8, !tbaa !18
  %46 = getelementptr inbounds nuw %struct.SpectralBandReplication, ptr %45, i32 0, i32 16
  %47 = getelementptr inbounds [2 x i32], ptr %46, i64 0, i64 0
  store i32 %44, ptr %47, align 4, !tbaa !12
  %48 = load i32, ptr %7, align 4, !tbaa !12
  %49 = load ptr, ptr %8, align 8, !tbaa !18
  %50 = getelementptr inbounds nuw %struct.SpectralBandReplication, ptr %49, i32 0, i32 3
  store i32 %48, ptr %50, align 4, !tbaa !21
  %51 = load ptr, ptr %8, align 8, !tbaa !18
  call void @sbr_turnoff(ptr noundef %51)
  %52 = load ptr, ptr %8, align 8, !tbaa !18
  %53 = getelementptr inbounds nuw %struct.SpectralBandReplication, ptr %52, i32 0, i32 21
  %54 = getelementptr inbounds [2 x %struct.SBRData], ptr %53, i64 0, i64 0
  %55 = getelementptr inbounds nuw %struct.SBRData, ptr %54, i32 0, i32 13
  store i32 1152, ptr %55, align 16, !tbaa !30
  %56 = load ptr, ptr %8, align 8, !tbaa !18
  %57 = getelementptr inbounds nuw %struct.SpectralBandReplication, ptr %56, i32 0, i32 21
  %58 = getelementptr inbounds [2 x %struct.SBRData], ptr %57, i64 0, i64 1
  %59 = getelementptr inbounds nuw %struct.SBRData, ptr %58, i32 0, i32 13
  store i32 1152, ptr %59, align 16, !tbaa !30
  store float 0x3EA0000000000000, ptr %11, align 4, !tbaa !32
  %60 = load ptr, ptr %8, align 8, !tbaa !18
  %61 = getelementptr inbounds nuw %struct.SpectralBandReplication, ptr %60, i32 0, i32 49
  %62 = load ptr, ptr %8, align 8, !tbaa !18
  %63 = getelementptr inbounds nuw %struct.SpectralBandReplication, ptr %62, i32 0, i32 50
  %64 = call i32 @av_tx_init(ptr noundef %61, ptr noundef %63, i32 noundef 1, i32 noundef 1, i32 noundef 64, ptr noundef %11, i64 noundef 0)
  store i32 %64, ptr %10, align 4, !tbaa !12
  %65 = load i32, ptr %10, align 4, !tbaa !12
  %66 = icmp slt i32 %65, 0
  br i1 %66, label %67, label %69

67:                                               ; preds = %17
  %68 = load i32, ptr %10, align 4, !tbaa !12
  store i32 %68, ptr %4, align 4
  store i32 1, ptr %12, align 4
  br label %86

69:                                               ; preds = %17
  store float -6.553600e+04, ptr %11, align 4, !tbaa !32
  %70 = load ptr, ptr %8, align 8, !tbaa !18
  %71 = getelementptr inbounds nuw %struct.SpectralBandReplication, ptr %70, i32 0, i32 47
  %72 = load ptr, ptr %8, align 8, !tbaa !18
  %73 = getelementptr inbounds nuw %struct.SpectralBandReplication, ptr %72, i32 0, i32 48
  %74 = call i32 @av_tx_init(ptr noundef %71, ptr noundef %73, i32 noundef 1, i32 noundef 1, i32 noundef 64, ptr noundef %11, i64 noundef 0)
  store i32 %74, ptr %10, align 4, !tbaa !12
  %75 = load i32, ptr %10, align 4, !tbaa !12
  %76 = icmp slt i32 %75, 0
  br i1 %76, label %77, label %79

77:                                               ; preds = %69
  %78 = load i32, ptr %10, align 4, !tbaa !12
  store i32 %78, ptr %4, align 4
  store i32 1, ptr %12, align 4
  br label %86

79:                                               ; preds = %69
  %80 = load ptr, ptr %8, align 8, !tbaa !18
  %81 = getelementptr inbounds nuw %struct.SpectralBandReplication, ptr %80, i32 0, i32 22
  call void @ff_ps_ctx_init(ptr noundef %81)
  %82 = load ptr, ptr %8, align 8, !tbaa !18
  %83 = getelementptr inbounds nuw %struct.SpectralBandReplication, ptr %82, i32 0, i32 51
  call void @ff_sbrdsp_init(ptr noundef %83)
  %84 = load ptr, ptr %8, align 8, !tbaa !18
  %85 = getelementptr inbounds nuw %struct.SpectralBandReplication, ptr %84, i32 0, i32 52
  call void @aacsbr_func_ptr_init(ptr noundef %85)
  store i32 0, ptr %4, align 4
  store i32 1, ptr %12, align 4
  br label %86

86:                                               ; preds = %79, %77, %67, %16
  call void @llvm.lifetime.end.p0(i64 4, ptr %11) #12
  call void @llvm.lifetime.end.p0(i64 4, ptr %10) #12
  call void @llvm.lifetime.end.p0(i64 8, ptr %9) #12
  call void @llvm.lifetime.end.p0(i64 8, ptr %8) #12
  %87 = load i32, ptr %4, align 4
  ret i32 %87
}